target datalayout = "e-m:e-p270:32:32-p271:32:32-p272:64:64-i64:64-i128:128-f80:128-n8:16:32:64-S128"
target triple = "x86_64-pc-linux-gnu"

%struct.evp_rand_ctx_st = type { ptr, ptr, ptr, %struct.CRYPTO_REF_COUNT, ptr }
%struct.CRYPTO_REF_COUNT = type { i32 }
%struct.evp_rand_st = type { ptr, i32, ptr, ptr, %struct.CRYPTO_REF_COUNT, ptr, ptr, ptr, ptr, ptr, ptr, ptr, ptr, ptr, ptr, ptr, ptr, ptr, ptr, ptr, ptr, ptr, ptr, ptr, ptr }

; Function Attrs: nounwind uwtable
define internal void @evp_rand_unlock(ptr noundef %0) #0 {
  %2 = alloca ptr, align 8
  store ptr %0, ptr %2, align 8, !tbaa !3
  %3 = load ptr, ptr %2, align 8, !tbaa !3
  %4 = getelementptr inbounds nuw %struct.evp_rand_ctx_st, ptr %3, i32 0, i32 0
  %5 = load ptr, ptr %4, align 8, !tbaa !8
  %6 = getelementptr inbounds nuw %struct.evp_rand_st, ptr %5, i32 0, i32 15
  %7 = load ptr, ptr %6, align 8, !tbaa !45
  %8 = icmp ne ptr %7, null
  br i1 %8, label %9, label %18

9:                                                ; preds = %1
  %10 = load ptr, ptr %2, align 8, !tbaa !3
  %11 = getelementptr inbounds nuw %struct.evp_rand_ctx_st, ptr %10, i32 0, i32 0
  %12 = load ptr, ptr %11, align 8, !tbaa !8
  %13 = getelementptr inbounds nuw %struct.evp_rand_st, ptr %12, i32 0, i32 15
  %14 = load ptr, ptr %13, align 8, !tbaa !45
  %15 = load ptr, ptr %2, align 8, !tbaa !3
  %16 = getelementptr inbounds nuw %struct.evp_rand_ctx_st, ptr %15, i32 0, i32 1
  %17 = load ptr, ptr %16, align 8, !tbaa !18
  call void %14(ptr noundef %17)
  br label %18

18:                                               ; preds = %9, %1
  ret void
}

; Function Attrs: nounwind uwtable
define internal i32 @evp_rand_uninstantiate_locked(ptr noundef %0) #0 {
  %2 = alloca ptr, align 8
  store ptr %0, ptr %2, align 8, !tbaa !3
  %3 = load ptr, ptr %2, align 8, !tbaa !3
  %4 = getelementptr inbounds nuw %struct.evp_rand_ctx_st, ptr %3, i32 0, i32 0
  %5 = load ptr, ptr %4, align 8, !tbaa !8
  %6 = getelementptr inbounds nuw %struct.evp_rand_st, ptr %5, i32 0, i32 9
  %7 = load ptr, ptr %6, align 8, !tbaa !40
  %8 = load ptr, ptr %2, align 8, !tbaa !3
  %9 = getelementptr inbounds nuw %struct.evp_rand_ctx_st, ptr %8, i32 0, i32 1
  %10 = load ptr, ptr %9, align 8, !tbaa !18
  %11 = call i32 %7(ptr noundef %10)
  ret i32 %11
}

; Function Attrs: nounwind uwtable
define internal i32 @evp_rand_lock(ptr noundef %0) #0 {
  %2 = alloca i32, align 4
  %3 = alloca ptr, align 8
  store ptr %0, ptr %3, align 8, !tbaa !3
  %4 = load ptr, ptr %3, align 8, !tbaa !3
  %5 = getelementptr inbounds nuw %struct.evp_rand_ctx_st, ptr %4, i32 0, i32 0
  %6 = load ptr, ptr %5, align 8, !tbaa !8
  %7 = getelementptr inbounds nuw %struct.evp_rand_st, ptr %6, i32 0, i32 14
  %8 = load ptr, ptr %7, align 8, !tbaa !44
  %9 = icmp ne ptr %8, null
  br i1 %9, label %10, label %20

10:                                               ; preds = %1
  %11 = load ptr, ptr %3, align 8, !tbaa !3
  %12 = getelementptr inbounds nuw %struct.evp_rand_ctx_st, ptr %11, i32 0, i32 0
  %13 = load ptr, ptr %12, align 8, !tbaa !8
  %14 = getelementptr inbounds nuw %struct.evp_rand_st, ptr %13, i32 0, i32 14
  %15 = load ptr, ptr %14, align 8, !tbaa !44
  %16 = load ptr, ptr %3, align 8, !tbaa !3
  %17 = getelementptr inbounds nuw %struct.evp_rand_ctx_st, ptr %16, i32 0, i32 1
  %18 = load ptr, ptr %17, align 8, !tbaa !18
  %19 = call i32 %15(ptr noundef %18)
  store i32 %19, ptr %2, align 4
  br label %21

20:                                               ; preds = %1
  store i32 1, ptr %2, align 4
  br label %21

21:                                               ; preds = %20, %10
  %22 = load i32, ptr %2, align 4
  ret i32 %22
}

; Function Attrs: nounwind uwtable
define i32 @EVP_RAND_uninstantiate(ptr noundef %0) #0 {
  %2 = alloca i32, align 4
  %3 = alloca ptr, align 8
  %4 = alloca i32, align 4
  %5 = alloca i32, align 4
  store ptr %0, ptr %3, align 8, !tbaa !3
  call void @llvm.lifetime.start.p0(i64 4, ptr %4) #6
  %6 = load ptr, ptr %3, align 8, !tbaa !3
  %7 = call i32 @evp_rand_lock(ptr noundef %6)
  %8 = icmp ne i32 %7, 0
  br i1 %8, label %10, label %9

9:                                                ; preds = %1
  store i32 0, ptr %2, align 4
  store i32 1, ptr %5, align 4
  br label %15

10:                                               ; preds = %1
  %11 = load ptr, ptr %3, align 8, !tbaa !3
  %12 = call i32 @evp_rand_uninstantiate_locked(ptr noundef %11)
  store i32 %12, ptr %4, align 4, !tbaa !22
  %13 = load ptr, ptr %3, align 8, !tbaa !3
  call void @evp_rand_unlock(ptr noundef %13)
  %14 = load i32, ptr %4, align 4, !tbaa !22
  store i32 %14, ptr %2, align 4
  store i32 1, ptr %5, align 4
  br label %15

15:                                               ; preds = %10, %9
  call void @llvm.lifetime.end.p0(i64 4, ptr %4) #6
  %16 = load i32, ptr %2, align 4
  ret i32 %16
}