; Function Attrs: nounwind uwtable
define i32 @EVP_RAND_uninstantiate(ptr noundef readonly captures(none) %0) local_unnamed_addr #0 {
  %2 = load ptr, ptr %0, align 8, !tbaa !3
  %3 = getelementptr inbounds nuw i8, ptr %2, i64 112
  %4 = load ptr, ptr %3, align 8, !tbaa !37
  %.not.i = icmp eq ptr %4, null
  br i1 %.not.i, label %evp_rand_lock.exit.thread, label %evp_rand_lock.exit

evp_rand_lock.exit:                               ; preds = %1
  %5 = getelementptr inbounds nuw i8, ptr %0, i64 8
  %6 = load ptr, ptr %5, align 8, !tbaa !17
  %7 = tail call i32 %4(ptr noundef %6) #8
  %.not = icmp eq i32 %7, 0
  br i1 %.not, label %evp_rand_unlock.exit, label %evp_rand_lock.exit.evp_rand_lock.exit.thread_crit_edge

evp_rand_lock.exit.evp_rand_lock.exit.thread_crit_edge: ; preds = %evp_rand_lock.exit
  %.val.pre = load ptr, ptr %0, align 8, !tbaa !3
  br label %evp_rand_lock.exit.thread

evp_rand_lock.exit.thread:                        ; preds = %evp_rand_lock.exit.evp_rand_lock.exit.thread_crit_edge, %1
  %.val = phi ptr [ %.val.pre, %evp_rand_lock.exit.evp_rand_lock.exit.thread_crit_edge ], [ %2, %1 ]
  %8 = getelementptr i8, ptr %0, i64 8
  %.val4 = load ptr, ptr %8, align 8, !tbaa !17
  %9 = getelementptr i8, ptr %.val, i64 72
  %.val.val = load ptr, ptr %9, align 8, !tbaa !33
  %10 = tail call i32 %.val.val(ptr noundef %.val4) #8
  %11 = load ptr, ptr %0, align 8, !tbaa !3
  %12 = getelementptr inbounds nuw i8, ptr %11, i64 120
  %13 = load ptr, ptr %12, align 8, !tbaa !38
  %.not.i5 = icmp eq ptr %13, null
  br i1 %.not.i5, label %evp_rand_unlock.exit, label %14

14:                                               ; preds = %evp_rand_lock.exit.thread
  %15 = load ptr, ptr %8, align 8, !tbaa !17
  tail call void %13(ptr noundef %15) #8
  br label %evp_rand_unlock.exit

evp_rand_unlock.exit:                             ; preds = %14, %evp_rand_lock.exit.thread, %evp_rand_lock.exit
  %.0 = phi i32 [ 0, %evp_rand_lock.exit ], [ %10, %evp_rand_lock.exit.thread ], [ %10, %14 ]
  ret i32 %.0
}